Certificate:
    Data:
        Version: 1 (0x0)
        Serial Number: 1 (0x1)
        Signature Algorithm: sha256WithRSAEncryption
        Issuer: C=UY, ST=Uruguay, L=Montevideo, O=Internet Widgits Pty Ltd, CN=Felipe Sandim/emailAddress=felipesandimguliermone@gmail.com
        Validity
            Not Before: Oct  3 02:08:51 2023 GMT
            Not After : Sep 30 02:08:51 2033 GMT
        Subject: C=UY, ST=Montevideo, O=Internet Widgits Pty Ltd, CN=Felipe Sandim/emailAddress=felipesandimguliermone@gmail.com
        Subject Public Key Info:
            Public Key Algorithm: rsaEncryption
                Public-Key: (1024 bit)
                Modulus:
                    00:d0:44:4d:f0:01:12:d8:d3:9b:3c:b5:dd:ca:a3:
                    1f:fc:2d:b6:99:c4:4e:43:49:66:ab:5a:83:da:90:
                    d9:04:7d:64:52:53:3b:3d:ba:0c:b3:b6:b6:38:9e:
                    5c:18:96:bd:d9:25:96:76:19:37:e2:83:8f:78:14:
                    dd:60:f5:45:18:69:fa:b6:b7:15:54:fc:00:76:53:
                    48:c4:65:0c:f3:46:1d:ce:f3:5f:ea:9f:19:2e:c5:
                    4b:66:18:e3:1d:47:0c:f9:cc:73:06:c4:98:bc:59:
                    a9:a1:79:00:a6:38:a0:83:0c:79:98:8e:02:df:c0:
                    02:10:99:a2:da:c7:32:c8:c7
                Exponent: 65537 (0x10001)
    Signature Algorithm: sha256WithRSAEncryption
    Signature Value:
        b6:21:30:c8:49:76:d7:13:c1:43:85:d8:bd:e9:9d:16:7a:56:
        75:08:53:c1:81:bb:e8:85:ce:4a:01:a6:d4:59:9c:2f:d1:ad:
        3c:59:04:1b:f8:0a:ef:4c:04:da:f1:50:07:18:c5:a5:42:2c:
        84:81:ff:97:b7:9e:4f:d1:da:29:5c:65:a7:eb:59:0b:12:bf:
        1b:0a:95:d5:25:e2:44:ee:ff:cb:db:d5:78:fc:f1:77:3d:8f:
        d4:a0:1c:07:d6:ca:cd:17:1a:1e:14:bf:2e:e9:6d:a7:7a:62:
        40:76:89:d3:30:22:f7:25:d6:25:93:39:f2:aa:03:6f:a4:4a:
        22:79:85:81:c6:f3:7b:bd:30:43:c3:75:9f:ca:96:6e:df:16:
        99:df:cd:5a:b2:c8:32:64:0e:1c:81:75:5d:27:ba:f7:66:3b:
        89:4b:fe:3e:20:de:e1:27:68:1a:22:ba:0c:42:0f:07:f5:8e:
        c1:65:7b:02:80:34:39:08:fb:f1:a7:86:bd:57:47:3a:90:03:
        3f:5d:5c:0b:64:ec:bb:08:fa:a7:25:71:38:ea:89:f1:d8:51:
        74:bd:71:bc:f4:30:0e:7b:e1:45:4c:69:92:31:6a:0f:c9:22:
        74:d1:5d:76:82:a7:27:8c:bb:a5:e7:6f:c3:a0:7d:47:0c:e4:
        7c:1c:56:08:d5:9e:4d:1a:c7:74:50:b7:4a:f2:8b:e0:db:f5:
        a7:40:ca:57:46:8f:f4:39:ff:25:94:95:b2:2e:06:4d:71:a1:
        11:86:a0:56:02:98:45:26:98:90:55:49:ef:59:f1:41:38:8b:
        23:5e:5c:b6:d7:2d:6f:de:92:09:46:0a:a4:04:42:a9:15:ba:
        f0:9c:84:35:94:6e:42:61:01:42:62:cd:98:0f:ee:38:64:42:
        e0:94:2f:60:4a:01:c7:fc:67:c6:54:b5:fa:c5:c6:bb:fd:37:
        b4:b4:f2:00:16:de:e5:9a:a7:73:4d:11:ff:d3:80:9e:c0:e2:
        c2:41:4d:54:8a:1c:3c:6d:74:75:ce:b2:1d:db:7c:b0:38:58:
        16:d4:43:0b:9c:10:cb:d4:67:5b:98:09:14:ba:aa:a6:d7:c0:
        c0:f3:61:c1:85:a1:e5:dc:25:76:f5:b5:26:c6:af:08:0a:c4:
        b6:45:10:f7:fe:89:a3:ea:e7:da:7c:a1:61:18:45:05:73:6d:
        32:6f:1b:83:f0:3b:b9:cf:cb:a7:31:90:2f:b6:68:c5:6d:42:
        cb:6f:95:e1:e1:64:66:57:8b:ed:be:f5:2b:97:e5:f3:2f:c9:
        83:af:f6:8b:d7:60:1d:03:3b:3c:d4:9c:60:70:b3:a3:af:3a:
        69:70:c0:a1:9c:de:f5:1c
-----BEGIN CERTIFICATE-----
MIIEIDCCAggCAQEwDQYJKoZIhvcNAQELBQAwgaAxCzAJBgNVBAYTAlVZMRAwDgYD
VQQIDAdVcnVndWF5MRMwEQYDVQQHDApNb250ZXZpZGVvMSEwHwYDVQQKDBhJbnRl
cm5ldCBXaWRnaXRzIFB0eSBMdGQxFjAUBgNVBAMMDUZlbGlwZSBTYW5kaW0xLzAt
BgkqhkiG9w0BCQEWIGZlbGlwZXNhbmRpbWd1bGllcm1vbmVAZ21haWwuY29tMB4X
DTIzMTAwMzAyMDg1MVoXDTMzMDkzMDAyMDg1MVowgY4xCzAJBgNVBAYTAlVZMRMw
EQYDVQQIDApNb250ZXZpZGVvMSEwHwYDVQQKDBhJbnRlcm5ldCBXaWRnaXRzIFB0
eSBMdGQxFjAUBgNVBAMMDUZlbGlwZSBTYW5kaW0xLzAtBgkqhkiG9w0BCQEWIGZl
bGlwZXNhbmRpbWd1bGllcm1vbmVAZ21haWwuY29tMIGfMA0GCSqGSIb3DQEBAQUA
A4GNADCBiQKBgQDQRE3wARLY05s8td3Kox/8LbaZxE5DSWarWoPakNkEfWRSUzs9
ugyztrY4nlwYlr3ZJZZ2GTfig494FN1g9UUYafq2txVU/AB2U0jEZQzzRh3O81/q
nxkuxUtmGOMdRwz5zHMGxJi8WamheQCmOKCDDHmYjgLfwAIQmaLaxzLIxwIDAQAB
MA0GCSqGSIb3DQEBCwUAA4ICAQC2ITDISXbXE8FDhdi96Z0WelZ1CFPBgbvohc5K
AabUWZwv0a08WQQb+ArvTATa8VAHGMWlQiyEgf+Xt55P0dopXGWn61kLEr8bCpXV
JeJE7v/L29V4/PF3PY/UoBwH1srNFxoeFL8u6W2nemJAdonTMCL3JdYlkznyqgNv
pEoieYWBxvN7vTBDw3WfypZu3xaZ381assgyZA4cgXVdJ7r3ZjuJS/4+IN7hJ2ga
IroMQg8H9Y7BZXsCgDQ5CPvxp4a9V0c6kAM/XVwLZOy7CPqnJXE46onx2FF0vXG8
9DAOe+FFTGmSMWoPySJ00V12gqcnjLul52/DoH1HDOR8HFYI1Z5NGsd0ULdK8ovg
2/WnQMpXRo/0Of8llJWyLgZNcaERhqBWAphFJpiQVUnvWfFBOIsjXly21y1v3pIJ
RgqkBEKpFbrwnIQ1lG5CYQFCYs2YD+44ZELglC9gSgHH/GfGVLX6xca7/Te0tPIA
Ft7lmqdzTRH/04CewOLCQU1Uihw8bXR1zrId23ywOFgW1EMLnBDL1GdbmAkUuqqm
18DA82HBhaHl3CV29bUmxq8ICsS2RRD3/omj6ufafKFhGEUFc20ybxuD8Du5z8un
MZAvtmjFbULLb5Xh4WRmV4vtvvUrl+XzL8mDr/aL12AdAzs81JxgcLOjrzppcMCh
nN71HA==
-----END CERTIFICATE-----
